; Function Attrs: mustprogress uwtable
define internal fastcc noundef zeroext i1 @_ZN4i18n12phonenumbers12_GLOBAL__N_123ContainsOnlyValidXCharsERKNS0_11PhoneNumberERKNSt7__cxx1112basic_stringIcSt11char_traitsIcESaIcEEERKNS0_15PhoneNumberUtilE(ptr noundef nonnull align 8 dereferenceable(72) %0, ptr noundef nonnull align 8 dereferenceable(32) %1, ptr noundef nonnull align 8 dereferenceable(64) %2) unnamed_addr #4 personality ptr @__gxx_personality_v0 {
  %4 = alloca %"class.std::__cxx11::basic_string", align 8
  %5 = alloca %"class.std::__cxx11::basic_string", align 8
  %6 = tail call noundef i64 @_ZNKSt7__cxx1112basic_stringIcSt11char_traitsIcESaIcEE13find_first_ofEPKcm(ptr noundef nonnull align 8 dereferenceable(32) %1, ptr noundef nonnull @.str.3, i64 noundef 0) #19
  %.not39 = icmp eq i64 %6, -1
  br i1 %.not39, label %.critedge, label %.lr.ph

.lr.ph:                                           ; preds = %3
  %7 = getelementptr inbounds i8, ptr %0, i64 24
  br label %8

8:                                                ; preds = %.lr.ph, %38
  %.03140 = phi i64 [ %6, %.lr.ph ], [ %39, %38 ]
  %9 = call noundef i64 @_ZNKSt7__cxx1112basic_stringIcSt11char_traitsIcESaIcEE6lengthEv(ptr noundef nonnull align 8 dereferenceable(32) %1) #19
  %10 = add i64 %9, -1
  %11 = icmp ult i64 %.03140, %10
  br i1 %11, label %12, label %.critedge

12:                                               ; preds = %8
  %13 = add nuw i64 %.03140, 1
  %14 = call noundef nonnull align 1 dereferenceable(1) ptr @_ZNKSt7__cxx1112basic_stringIcSt11char_traitsIcESaIcEEixEm(ptr noundef nonnull align 8 dereferenceable(32) %1, i64 noundef %13) #19
  %15 = load i8, ptr %14, align 1
  %16 = and i8 %15, -33
  %or.cond = icmp eq i8 %16, 88
  %17 = call noundef i64 @_ZNKSt7__cxx1112basic_stringIcSt11char_traitsIcESaIcEE6lengthEv(ptr noundef nonnull align 8 dereferenceable(32) %1) #19
  br i1 %or.cond, label %18, label %24

18:                                               ; preds = %12
  %19 = sub i64 %17, %13
  call void @_ZNKSt7__cxx1112basic_stringIcSt11char_traitsIcESaIcEE6substrEmm(ptr dead_on_unwind nonnull writable sret(%"class.std::__cxx11::basic_string") align 8 %4, ptr noundef nonnull align 8 dereferenceable(32) %1, i64 noundef %13, i64 noundef %19)
  %20 = invoke noundef i32 @_ZNK4i18n12phonenumbers15PhoneNumberUtil26IsNumberMatchWithOneStringERKNS0_11PhoneNumberERKNSt7__cxx1112basic_stringIcSt11char_traitsIcESaIcEEE(ptr noundef nonnull align 8 dereferenceable(64) %2, ptr noundef nonnull align 8 dereferenceable(72) %0, ptr noundef nonnull align 8 dereferenceable(32) %4)
          to label %21 unwind label %22

21:                                               ; preds = %18
  %.not34 = icmp eq i32 %20, 3
  call void @_ZNSt7__cxx1112basic_stringIcSt11char_traitsIcESaIcEED1Ev(ptr noundef nonnull align 8 dereferenceable(32) %4) #19
  br i1 %.not34, label %._crit_edge, label %.critedge

._crit_edge:                                      ; preds = %21
  %.pre = add i64 %.03140, 2
  br label %38

22:                                               ; preds = %18
  %23 = landingpad { ptr, i32 }
          cleanup
  br label %40

24:                                               ; preds = %12
  %25 = sub i64 %17, %.03140
  call void @_ZNKSt7__cxx1112basic_stringIcSt11char_traitsIcESaIcEE6substrEmm(ptr dead_on_unwind nonnull writable sret(%"class.std::__cxx11::basic_string") align 8 %5, ptr noundef nonnull align 8 dereferenceable(32) %1, i64 noundef %.03140, i64 noundef %25)
  invoke void @_ZNK4i18n12phonenumbers15PhoneNumberUtil19NormalizeDigitsOnlyEPNSt7__cxx1112basic_stringIcSt11char_traitsIcESaIcEEE(ptr noundef nonnull align 8 dereferenceable(64) %2, ptr noundef nonnull %5)
          to label %26 unwind label %36

26:                                               ; preds = %24
  %27 = load ptr, ptr %7, align 8
  %28 = call noundef i64 @_ZNKSt7__cxx1112basic_stringIcSt11char_traitsIcESaIcEE4sizeEv(ptr noundef nonnull align 8 dereferenceable(32) %5) #19
  %29 = call noundef i64 @_ZNKSt7__cxx1112basic_stringIcSt11char_traitsIcESaIcEE4sizeEv(ptr noundef nonnull align 8 dereferenceable(32) %27) #19
  %30 = icmp eq i64 %28, %29
  br i1 %30, label %31, label %_ZStneIcSt11char_traitsIcESaIcEEbRKNSt7__cxx1112basic_stringIT_T0_T1_EESA_.exit.thread36

_ZStneIcSt11char_traitsIcESaIcEEbRKNSt7__cxx1112basic_stringIT_T0_T1_EESA_.exit.thread36: ; preds = %26
  call void @_ZNSt7__cxx1112basic_stringIcSt11char_traitsIcESaIcEED1Ev(ptr noundef nonnull align 8 dereferenceable(32) %5) #19
  br label %.critedge

31:                                               ; preds = %26
  %32 = call noundef ptr @_ZNKSt7__cxx1112basic_stringIcSt11char_traitsIcESaIcEE4dataEv(ptr noundef nonnull align 8 dereferenceable(32) %5) #19
  %33 = call noundef ptr @_ZNKSt7__cxx1112basic_stringIcSt11char_traitsIcESaIcEE4dataEv(ptr noundef nonnull align 8 dereferenceable(32) %27) #19
  %34 = call noundef i64 @_ZNKSt7__cxx1112basic_stringIcSt11char_traitsIcESaIcEE4sizeEv(ptr noundef nonnull align 8 dereferenceable(32) %5) #19
  %35 = icmp eq i64 %34, 0
  br i1 %35, label %_ZStneIcSt11char_traitsIcESaIcEEbRKNSt7__cxx1112basic_stringIT_T0_T1_EESA_.exit.thread, label %_ZStneIcSt11char_traitsIcESaIcEEbRKNSt7__cxx1112basic_stringIT_T0_T1_EESA_.exit

_ZStneIcSt11char_traitsIcESaIcEEbRKNSt7__cxx1112basic_stringIT_T0_T1_EESA_.exit.thread: ; preds = %31
  call void @_ZNSt7__cxx1112basic_stringIcSt11char_traitsIcESaIcEED1Ev(ptr noundef nonnull align 8 dereferenceable(32) %5) #19
  br label %38

_ZStneIcSt11char_traitsIcESaIcEEbRKNSt7__cxx1112basic_stringIT_T0_T1_EESA_.exit: ; preds = %31
  %bcmp.i.i = call i32 @bcmp(ptr %32, ptr %33, i64 %34)
  %.not38 = icmp eq i32 %bcmp.i.i, 0
  call void @_ZNSt7__cxx1112basic_stringIcSt11char_traitsIcESaIcEED1Ev(ptr noundef nonnull align 8 dereferenceable(32) %5) #19
  br i1 %.not38, label %38, label %.critedge

36:                                               ; preds = %24
  %37 = landingpad { ptr, i32 }
          cleanup
  br label %40

38:                                               ; preds = %._crit_edge, %_ZStneIcSt11char_traitsIcESaIcEEbRKNSt7__cxx1112basic_stringIT_T0_T1_EESA_.exit.thread, %_ZStneIcSt11char_traitsIcESaIcEEbRKNSt7__cxx1112basic_stringIT_T0_T1_EESA_.exit
  %.pre-phi = phi i64 [ %.pre, %._crit_edge ], [ %13, %_ZStneIcSt11char_traitsIcESaIcEEbRKNSt7__cxx1112basic_stringIT_T0_T1_EESA_.exit.thread ], [ %13, %_ZStneIcSt11char_traitsIcESaIcEEbRKNSt7__cxx1112basic_stringIT_T0_T1_EESA_.exit ]
  %39 = call noundef i64 @_ZNKSt7__cxx1112basic_stringIcSt11char_traitsIcESaIcEE13find_first_ofEPKcm(ptr noundef nonnull align 8 dereferenceable(32) %1, ptr noundef nonnull @.str.3, i64 noundef %.pre-phi) #19
  %.not = icmp eq i64 %39, -1
  br i1 %.not, label %.critedge, label %8, !llvm.loop !10

.critedge:                                        ; preds = %21, %38, %8, %_ZStneIcSt11char_traitsIcESaIcEEbRKNSt7__cxx1112basic_stringIT_T0_T1_EESA_.exit, %3, %_ZStneIcSt11char_traitsIcESaIcEEbRKNSt7__cxx1112basic_stringIT_T0_T1_EESA_.exit.thread36
  %.3 = phi i1 [ false, %_ZStneIcSt11char_traitsIcESaIcEEbRKNSt7__cxx1112basic_stringIT_T0_T1_EESA_.exit.thread36 ], [ true, %3 ], [ false, %21 ], [ true, %38 ], [ true, %8 ], [ false, %_ZStneIcSt11char_traitsIcESaIcEEbRKNSt7__cxx1112basic_stringIT_T0_T1_EESA_.exit ]
  ret i1 %.3

40:                                               ; preds = %36, %22
  %.sink = phi ptr [ %5, %36 ], [ %4, %22 ]
  %.pn = phi { ptr, i32 } [ %37, %36 ], [ %23, %22 ]
  call void @_ZNSt7__cxx1112basic_stringIcSt11char_traitsIcESaIcEED1Ev(ptr noundef nonnull align 8 dereferenceable(32) %.sink) #19
  resume { ptr, i32 } %.pn
}